target datalayout = "e-m:e-p270:32:32-p271:32:32-p272:64:64-i64:64-i128:128-f80:128-n8:16:32:64-S128"
target triple = "x86_64-unknown-linux-gnu"

%"class.std::set" = type { %"class.std::_Rb_tree" }
%"class.std::_Rb_tree" = type { %"struct.std::_Rb_tree<std::__cxx11::basic_string<char>, std::__cxx11::basic_string<char>, std::_Identity<std::__cxx11::basic_string<char>>, re2::Prefilter::LengthThenLex>::_Rb_tree_impl" }
%"struct.std::_Rb_tree<std::__cxx11::basic_string<char>, std::__cxx11::basic_string<char>, std::_Identity<std::__cxx11::basic_string<char>>, re2::Prefilter::LengthThenLex>::_Rb_tree_impl" = type { %"struct.std::_Rb_tree_key_compare", %"struct.std::_Rb_tree_header" }
%"struct.std::_Rb_tree_key_compare" = type { %"struct.re2::Prefilter::LengthThenLex" }
%"struct.re2::Prefilter::LengthThenLex" = type { i8 }
%"struct.std::_Rb_tree_header" = type { %"struct.std::_Rb_tree_node_base", i64 }
%"struct.std::_Rb_tree_node_base" = type { i32, ptr, ptr, ptr }
%"class.re2::Prefilter::Info" = type { %"class.std::set", i8, ptr }

@_ZN3re29PrefilterC1ENS0_2OpE = unnamed_addr alias void (ptr, i32), ptr @_ZN3re29PrefilterC2ENS0_2OpE
@_ZN3re29Prefilter4InfoC1Ev = unnamed_addr alias void (ptr), ptr @_ZN3re29Prefilter4InfoC2Ev

; Function Attrs: mustprogress uwtable
define noundef ptr @_ZN3re29Prefilter4Info7NoMatchEv() #0 align 2 personality ptr @__gxx_personality_v0 {
entry:
  %info = alloca ptr, align 8
  %exn.slot = alloca ptr, align 8
  %ehselector.slot = alloca i32, align 4
  %call = call noalias noundef nonnull ptr @_Znwm(i64 noundef 64) #14
  invoke void @_ZN3re29Prefilter4InfoC1Ev(ptr noundef nonnull align 8 dereferenceable(64) %call)
          to label %invoke.cont unwind label %lpad

invoke.cont:                                      ; preds = %entry
  store ptr %call, ptr %info, align 8
  %call1 = call noalias noundef nonnull ptr @_Znwm(i64 noundef 56) #14
  invoke void @_ZN3re29PrefilterC1ENS0_2OpE(ptr noundef nonnull align 8 dereferenceable(52) %call1, i32 noundef 1)
          to label %invoke.cont3 unwind label %lpad2

invoke.cont3:                                     ; preds = %invoke.cont
  %0 = load ptr, ptr %info, align 8
  %match_ = getelementptr inbounds %"class.re2::Prefilter::Info", ptr %0, i32 0, i32 2
  store ptr %call1, ptr %match_, align 8
  %1 = load ptr, ptr %info, align 8
  ret ptr %1

lpad:                                             ; preds = %entry
  %2 = landingpad { ptr, i32 }
          cleanup
  %3 = extractvalue { ptr, i32 } %2, 0
  store ptr %3, ptr %exn.slot, align 8
  %4 = extractvalue { ptr, i32 } %2, 1
  store i32 %4, ptr %ehselector.slot, align 4
  call void @_ZdlPv(ptr noundef %call) #15
  br label %eh.resume

lpad2:                                            ; preds = %invoke.cont
  %5 = landingpad { ptr, i32 }
          cleanup
  %6 = extractvalue { ptr, i32 } %5, 0
  store ptr %6, ptr %exn.slot, align 8
  %7 = extractvalue { ptr, i32 } %5, 1
  store i32 %7, ptr %ehselector.slot, align 4
  call void @_ZdlPv(ptr noundef %call1) #15
  br label %eh.resume

eh.resume:                                        ; preds = %lpad2, %lpad
  %exn = load ptr, ptr %exn.slot, align 8
  %sel = load i32, ptr %ehselector.slot, align 4
  %lpad.val = insertvalue { ptr, i32 } poison, ptr %exn, 0
  %lpad.val4 = insertvalue { ptr, i32 } %lpad.val, i32 %sel, 1
  resume { ptr, i32 } %lpad.val4
}